; Function Attrs: nounwind uwtable
define internal noundef i32 @_set_job_resvid(ptr noundef %0, ptr noundef readonly captures(address) %1) #0 {
  %3 = getelementptr inbounds nuw i8, ptr %0, i64 824
  %4 = load ptr, ptr %3, align 8
  %.not = icmp eq ptr %4, %1
  br i1 %.not, label %5, label %29

5:                                                ; preds = %2
  %6 = getelementptr inbounds nuw i8, ptr %0, i64 448
  %7 = load i32, ptr %6, align 8
  %8 = and i32 %7, 255
  %9 = icmp eq i32 %8, 0
  br i1 %9, label %10, label %29

10:                                               ; preds = %5
  %11 = load i64, ptr getelementptr inbounds nuw (i8, ptr @slurm_conf, i64 320), align 8
  %12 = and i64 %11, 16384
  %.not12 = icmp eq i64 %12, 0
  br i1 %.not12, label %23, label %13

13:                                               ; preds = %10
  %14 = tail call i32 @get_log_level() #19
  %15 = icmp sgt i32 %14, 3
  br i1 %15, label %16, label %23

16:                                               ; preds = %13
  %17 = getelementptr inbounds nuw i8, ptr %0, i64 800
  %18 = load i32, ptr %17, align 8
  %19 = getelementptr inbounds nuw i8, ptr %1, i64 236
  %20 = load i32, ptr %19, align 4
  %21 = getelementptr inbounds nuw i8, ptr %1, i64 184
  %22 = load ptr, ptr %21, align 8
  tail call void (i32, ptr, ...) @log_var(i32 noundef 4, ptr noundef nonnull @.str.251, ptr noundef nonnull %0, i32 noundef %18, i32 noundef %20, ptr noundef %22) #19
  br label %23

23:                                               ; preds = %13, %16, %10
  %24 = getelementptr inbounds nuw i8, ptr %1, i64 236
  %25 = load i32, ptr %24, align 4
  %26 = getelementptr inbounds nuw i8, ptr %0, i64 800
  store i32 %25, ptr %26, align 8
  %27 = load ptr, ptr @acct_db_conn, align 8
  %28 = tail call i32 @jobacct_storage_g_job_start(ptr noundef %27, ptr noundef nonnull %0) #19
  br label %29

29:                                               ; preds = %2, %5, %23
  ret i32 0
}